target datalayout = "e-m:e-p270:32:32-p271:32:32-p272:64:64-i64:64-i128:128-f80:128-n8:16:32:64-S128"
target triple = "x86_64-pc-linux-gnu"

%struct.ForEachState = type { ptr, i32 }
%struct.List = type { i32, i32, i32, ptr, [0 x %union.ListCell] }
%union.ListCell = type { ptr }

@.str.1 = private unnamed_addr constant [12 x i8] c"namespace.c\00", align 1
@myTempNamespace = internal global i32 0, align 4
@activeSearchPath = internal global ptr null, align 8
@.str.14 = private unnamed_addr constant [39 x i8] c"text search parser \22%s\22 does not exist\00", align 1
@__func__.get_ts_parser_oid = private unnamed_addr constant [18 x i8] c"get_ts_parser_oid\00", align 1

; Function Attrs: inlinehint nounwind uwtable
define internal i64 @ObjectIdGetDatum(i32 noundef %0) #7 {
  %2 = alloca i32, align 4
  store i32 %0, ptr %2, align 4
  %3 = load i32, ptr %2, align 4
  %4 = zext i32 %3 to i64
  ret i64 %4
}

; Function Attrs: inlinehint nounwind uwtable
define internal i64 @PointerGetDatum(ptr noundef %0) #7 {
  %2 = alloca ptr, align 8
  store ptr %0, ptr %2, align 8
  %3 = load ptr, ptr %2, align 8
  %4 = ptrtoint ptr %3 to i64
  ret i64 %4
}

; Function Attrs: nounwind uwtable
define dso_local i32 @get_ts_parser_oid(ptr noundef %0, i1 noundef zeroext %1) #0 {
  %3 = alloca ptr, align 8
  %4 = alloca i8, align 1
  %5 = alloca ptr, align 8
  %6 = alloca ptr, align 8
  %7 = alloca i32, align 4
  %8 = alloca i32, align 4
  %9 = alloca ptr, align 8
  %10 = alloca %struct.ForEachState, align 8
  %11 = alloca i32, align 4
  store ptr %0, ptr %3, align 8
  %12 = zext i1 %1 to i8
  store i8 %12, ptr %4, align 1
  call void @llvm.lifetime.start.p0(i64 8, ptr %5) #14
  call void @llvm.lifetime.start.p0(i64 8, ptr %6) #14
  call void @llvm.lifetime.start.p0(i64 4, ptr %7) #14
  call void @llvm.lifetime.start.p0(i64 4, ptr %8) #14
  store i32 0, ptr %8, align 4
  call void @llvm.lifetime.start.p0(i64 8, ptr %9) #14
  %13 = load ptr, ptr %3, align 8
  call void @DeconstructQualifiedName(ptr noundef %13, ptr noundef %5, ptr noundef %6)
  %14 = load ptr, ptr %5, align 8
  %15 = icmp ne ptr %14, null
  br i1 %15, label %16, label %34

16:                                               ; preds = %2
  %17 = load ptr, ptr %5, align 8
  %18 = load i8, ptr %4, align 1, !range !4, !noundef !5
  %19 = trunc i8 %18 to i1
  %20 = call i32 @LookupExplicitNamespace(ptr noundef %17, i1 noundef zeroext %19)
  store i32 %20, ptr %7, align 4
  %21 = load i8, ptr %4, align 1, !range !4, !noundef !5
  %22 = trunc i8 %21 to i1
  br i1 %22, label %23, label %27

23:                                               ; preds = %16
  %24 = load i32, ptr %7, align 4
  %25 = icmp ne i32 %24, 0
  br i1 %25, label %27, label %26

26:                                               ; preds = %23
  store i32 0, ptr %8, align 4
  br label %33

27:                                               ; preds = %23, %16
  %28 = load ptr, ptr %6, align 8
  %29 = call i64 @PointerGetDatum(ptr noundef %28)
  %30 = load i32, ptr %7, align 4
  %31 = call i64 @ObjectIdGetDatum(i32 noundef %30)
  %32 = call i32 @GetSysCacheOid(i32 noundef 77, i16 noundef signext 1, i64 noundef %29, i64 noundef %31, i64 noundef 0, i64 noundef 0)
  store i32 %32, ptr %8, align 4
  br label %33

33:                                               ; preds = %27, %26
  br label %88

34:                                               ; preds = %2
  call void @recomputeNamespacePath()
  call void @llvm.lifetime.start.p0(i64 16, ptr %10) #14
  %35 = getelementptr inbounds nuw %struct.ForEachState, ptr %10, i32 0, i32 0
  %36 = load ptr, ptr @activeSearchPath, align 8
  store ptr %36, ptr %35, align 8
  %37 = getelementptr inbounds nuw %struct.ForEachState, ptr %10, i32 0, i32 1
  store i32 0, ptr %37, align 8
  %38 = getelementptr i8, ptr %10, i64 12
  call void @llvm.memset.p0.i64(ptr align 4 %38, i8 0, i64 4, i1 false)
  br label %39

39:                                               ; preds = %82, %34
  %40 = getelementptr inbounds nuw %struct.ForEachState, ptr %10, i32 0, i32 0
  %41 = load ptr, ptr %40, align 8
  %42 = icmp ne ptr %41, null
  br i1 %42, label %43, label %60

43:                                               ; preds = %39
  %44 = getelementptr inbounds nuw %struct.ForEachState, ptr %10, i32 0, i32 1
  %45 = load i32, ptr %44, align 8
  %46 = getelementptr inbounds nuw %struct.ForEachState, ptr %10, i32 0, i32 0
  %47 = load ptr, ptr %46, align 8
  %48 = getelementptr inbounds nuw %struct.List, ptr %47, i32 0, i32 1
  %49 = load i32, ptr %48, align 4
  %50 = icmp slt i32 %45, %49
  br i1 %50, label %51, label %60

51:                                               ; preds = %43
  %52 = getelementptr inbounds nuw %struct.ForEachState, ptr %10, i32 0, i32 0
  %53 = load ptr, ptr %52, align 8
  %54 = getelementptr inbounds nuw %struct.List, ptr %53, i32 0, i32 3
  %55 = load ptr, ptr %54, align 8
  %56 = getelementptr inbounds nuw %struct.ForEachState, ptr %10, i32 0, i32 1
  %57 = load i32, ptr %56, align 8
  %58 = sext i32 %57 to i64
  %59 = getelementptr inbounds %union.ListCell, ptr %55, i64 %58
  store ptr %59, ptr %9, align 8
  br label %61

60:                                               ; preds = %43, %39
  store ptr null, ptr %9, align 8
  br label %61

61:                                               ; preds = %60, %51
  %62 = phi i32 [ 1, %51 ], [ 0, %60 ]
  %63 = icmp ne i32 %62, 0
  br i1 %63, label %65, label %64

64:                                               ; preds = %61
  store i32 2, ptr %11, align 4
  br label %86

65:                                               ; preds = %61
  %66 = load ptr, ptr %9, align 8
  %67 = load i32, ptr %66, align 8
  store i32 %67, ptr %7, align 4
  %68 = load i32, ptr %7, align 4
  %69 = load i32, ptr @myTempNamespace, align 4
  %70 = icmp eq i32 %68, %69
  br i1 %70, label %71, label %72

71:                                               ; preds = %65
  br label %82

72:                                               ; preds = %65
  %73 = load ptr, ptr %6, align 8
  %74 = call i64 @PointerGetDatum(ptr noundef %73)
  %75 = load i32, ptr %7, align 4
  %76 = call i64 @ObjectIdGetDatum(i32 noundef %75)
  %77 = call i32 @GetSysCacheOid(i32 noundef 77, i16 noundef signext 1, i64 noundef %74, i64 noundef %76, i64 noundef 0, i64 noundef 0)
  store i32 %77, ptr %8, align 4
  %78 = load i32, ptr %8, align 4
  %79 = icmp ne i32 %78, 0
  br i1 %79, label %80, label %81

80:                                               ; preds = %72
  store i32 2, ptr %11, align 4
  br label %86

81:                                               ; preds = %72
  br label %82

82:                                               ; preds = %81, %71
  %83 = getelementptr inbounds nuw %struct.ForEachState, ptr %10, i32 0, i32 1
  %84 = load i32, ptr %83, align 8
  %85 = add i32 %84, 1
  store i32 %85, ptr %83, align 8
  br label %39, !llvm.loop !34

86:                                               ; preds = %80, %64
  call void @llvm.lifetime.end.p0(i64 16, ptr %10) #14
  br label %87

87:                                               ; preds = %86
  br label %88

88:                                               ; preds = %87, %33
  %89 = load i32, ptr %8, align 4
  %90 = icmp ne i32 %89, 0
  br i1 %90, label %108, label %91

91:                                               ; preds = %88
  %92 = load i8, ptr %4, align 1, !range !4, !noundef !5
  %93 = trunc i8 %92 to i1
  br i1 %93, label %108, label %94

94:                                               ; preds = %91
  br label %95

95:                                               ; preds = %94
  br i1 true, label %96, label %98

96:                                               ; preds = %95
  %97 = call zeroext i1 @errstart_cold(i32 noundef 21, ptr noundef null) #16
  br i1 %97, label %100, label %105

98:                                               ; preds = %95
  %99 = call zeroext i1 @errstart(i32 noundef 21, ptr noundef null)
  br i1 %99, label %100, label %105

100:                                              ; preds = %98, %96
  %101 = call i32 @errcode(i32 noundef 67137668)
  %102 = load ptr, ptr %3, align 8
  %103 = call ptr @NameListToString(ptr noundef %102)
  %104 = call i32 (ptr, ...) @errmsg(ptr noundef @.str.14, ptr noundef %103)
  call void @errfinish(ptr noundef @.str.1, i32 noundef 2762, ptr noundef @__func__.get_ts_parser_oid)
  br label %105

105:                                              ; preds = %100, %98, %96
  unreachable

106:                                              ; No predecessors!
  br label %107

107:                                              ; preds = %106
  br label %108

108:                                              ; preds = %107, %91, %88
  %109 = load i32, ptr %8, align 4
  store i32 1, ptr %11, align 4
  call void @llvm.lifetime.end.p0(i64 8, ptr %9) #14
  call void @llvm.lifetime.end.p0(i64 4, ptr %8) #14
  call void @llvm.lifetime.end.p0(i64 4, ptr %7) #14
  call void @llvm.lifetime.end.p0(i64 8, ptr %6) #14
  call void @llvm.lifetime.end.p0(i64 8, ptr %5) #14
  ret i32 %109
}