; Function Attrs: nounwind uwtable
define dso_local i32 @get_ts_parser_oid(ptr noundef captures(address_is_null) %0, i1 noundef zeroext %1) local_unnamed_addr #0 {
  %3 = alloca ptr, align 8
  %4 = alloca ptr, align 8
  call void @llvm.lifetime.start.p0(i64 8, ptr nonnull %3) #19
  call void @llvm.lifetime.start.p0(i64 8, ptr nonnull %4) #19
  call void @DeconstructQualifiedName(ptr noundef %0, ptr noundef nonnull %3, ptr noundef nonnull %4)
  %5 = load ptr, ptr %3, align 8
  %.not23 = icmp eq ptr %5, null
  br i1 %.not23, label %14, label %6

6:                                                ; preds = %2
  %7 = tail call i32 @LookupExplicitNamespace(ptr noundef nonnull %5, i1 noundef zeroext %1)
  %8 = icmp eq i32 %7, 0
  %or.cond.not = select i1 %1, i1 %8, i1 false
  br i1 %or.cond.not, label %.thread, label %9

9:                                                ; preds = %6
  %10 = load ptr, ptr %4, align 8
  %11 = ptrtoint ptr %10 to i64
  %12 = zext i32 %7 to i64
  %13 = tail call i32 @GetSysCacheOid(i32 noundef 77, i16 noundef signext 1, i64 noundef %11, i64 noundef %12, i64 noundef 0, i64 noundef 0) #19
  br label %.thread

14:                                               ; preds = %2
  tail call fastcc void @recomputeNamespacePath()
  %15 = load ptr, ptr @activeSearchPath, align 8
  %.not24 = icmp eq ptr %15, null
  br i1 %.not24, label %.thread, label %.lr.ph

.lr.ph:                                           ; preds = %14
  %16 = getelementptr inbounds nuw i8, ptr %15, i64 4
  %17 = getelementptr inbounds nuw i8, ptr %15, i64 16
  %18 = load ptr, ptr %4, align 8
  %19 = ptrtoint ptr %18 to i64
  %20 = load i32, ptr %16, align 4
  %21 = icmp sgt i32 %20, 0
  br i1 %21, label %.lr.ph39.preheader, label %.thread

.lr.ph39.preheader:                               ; preds = %.lr.ph
  %.pre41 = load i32, ptr @myTempNamespace, align 4
  br label %.lr.ph39

.lr.ph39:                                         ; preds = %.lr.ph39.preheader, %31
  %22 = phi i32 [ %20, %.lr.ph39.preheader ], [ %32, %31 ]
  %23 = phi i32 [ %.pre41, %.lr.ph39.preheader ], [ %33, %31 ]
  %indvars.iv = phi i64 [ 0, %.lr.ph39.preheader ], [ %indvars.iv.next, %31 ]
  %24 = load ptr, ptr %17, align 8
  %25 = getelementptr inbounds nuw %union.ListCell, ptr %24, i64 %indvars.iv
  %26 = load i32, ptr %25, align 8
  %27 = icmp eq i32 %26, %23
  br i1 %27, label %31, label %28

28:                                               ; preds = %.lr.ph39
  %29 = zext i32 %26 to i64
  %30 = tail call i32 @GetSysCacheOid(i32 noundef 77, i16 noundef signext 1, i64 noundef %19, i64 noundef %29, i64 noundef 0, i64 noundef 0) #19
  %.not26 = icmp eq i32 %30, 0
  br i1 %.not26, label %._crit_edge, label %.thread30

._crit_edge:                                      ; preds = %28
  %.pre = load i32, ptr @myTempNamespace, align 4
  %.pre42 = load i32, ptr %16, align 4
  br label %31

31:                                               ; preds = %._crit_edge, %.lr.ph39
  %32 = phi i32 [ %.pre42, %._crit_edge ], [ %22, %.lr.ph39 ]
  %33 = phi i32 [ %.pre, %._crit_edge ], [ %23, %.lr.ph39 ]
  %indvars.iv.next = add nuw nsw i64 %indvars.iv, 1
  %34 = sext i32 %32 to i64
  %35 = icmp slt i64 %indvars.iv.next, %34
  br i1 %35, label %.lr.ph39, label %.thread

.thread:                                          ; preds = %31, %14, %.lr.ph, %6, %9
  %.0 = phi i32 [ %13, %9 ], [ 0, %6 ], [ 0, %.lr.ph ], [ 0, %14 ], [ 0, %31 ]
  %.not = icmp ne i32 %.0, 0
  %brmerge = or i1 %1, %.not
  br i1 %brmerge, label %.thread30, label %36

36:                                               ; preds = %.thread
  %37 = tail call zeroext i1 @errstart_cold(i32 noundef 21, ptr noundef null) #21
  tail call void @llvm.assume(i1 %37)
  %38 = tail call i32 @errcode(i32 noundef 67137668) #19
  %39 = tail call ptr @NameListToString(ptr noundef %0)
  %40 = tail call i32 (ptr, ...) @errmsg(ptr noundef nonnull @.str.14, ptr noundef %39) #19
  tail call void @errfinish(ptr noundef nonnull @.str.1, i32 noundef 2762, ptr noundef nonnull @__func__.get_ts_parser_oid) #19
  unreachable

.thread30:                                        ; preds = %28, %.thread
  %.035 = phi i32 [ %.0, %.thread ], [ %30, %28 ]
  call void @llvm.lifetime.end.p0(i64 8, ptr nonnull %4) #19
  call void @llvm.lifetime.end.p0(i64 8, ptr nonnull %3) #19
  ret i32 %.035
}